target datalayout = "e-m:e-p270:32:32-p271:32:32-p272:64:64-i64:64-i128:128-f80:128-n8:16:32:64-S128"
target triple = "x86_64-pc-linux-gnu"

%"class.icu_77::UnicodeString" = type { %"class.icu_77::Replaceable", %"union.icu_77::UnicodeString::StackBufferOrFields" }
%"class.icu_77::Replaceable" = type { %"class.icu_77::UObject" }
%"class.icu_77::UObject" = type { ptr }
%"union.icu_77::UnicodeString::StackBufferOrFields" = type { %struct.anon.0, [32 x i8] }
%struct.anon.0 = type { i16, i32, i32, ptr }
%"class.icu_77::NFRuleSet" = type <{ [8 x i8], %"class.icu_77::UnicodeString", %"class.icu_77::NFRuleList", [6 x ptr], ptr, %"class.icu_77::NFRuleList", i8, i8, i8, [5 x i8] }>
%"class.icu_77::NFRuleList" = type { ptr, i32, i32 }
%struct.anon = type { i16, [27 x i16] }

; Function Attrs: inlinehint mustprogress nounwind uwtable
define linkonce_odr noundef ptr @_ZNK6icu_7713UnicodeString13getArrayStartEv(ptr noundef nonnull align 8 dereferenceable(64) %0) #3 comdat align 2 {
  %2 = alloca ptr, align 8
  store ptr %0, ptr %2, align 8, !tbaa !10
  %3 = load ptr, ptr %2, align 8
  %4 = getelementptr inbounds nuw %"class.icu_77::UnicodeString", ptr %3, i32 0, i32 1
  %5 = getelementptr inbounds nuw %struct.anon.0, ptr %4, i32 0, i32 0
  %6 = load i16, ptr %5, align 8, !tbaa !35
  %7 = sext i16 %6 to i32
  %8 = and i32 %7, 2
  %9 = icmp ne i32 %8, 0
  br i1 %9, label %10, label %14

10:                                               ; preds = %1
  %11 = getelementptr inbounds nuw %"class.icu_77::UnicodeString", ptr %3, i32 0, i32 1
  %12 = getelementptr inbounds nuw %struct.anon, ptr %11, i32 0, i32 1
  %13 = getelementptr inbounds [27 x i16], ptr %12, i64 0, i64 0
  br label %18

14:                                               ; preds = %1
  %15 = getelementptr inbounds nuw %"class.icu_77::UnicodeString", ptr %3, i32 0, i32 1
  %16 = getelementptr inbounds nuw %struct.anon.0, ptr %15, i32 0, i32 3
  %17 = load ptr, ptr %16, align 8, !tbaa !35
  br label %18

18:                                               ; preds = %14, %10
  %19 = phi ptr [ %13, %10 ], [ %17, %14 ]
  ret ptr %19
}

; Function Attrs: inlinehint mustprogress nounwind uwtable
define linkonce_odr noundef i32 @_ZNK6icu_7713UnicodeString14getShortLengthEv(ptr noundef nonnull align 8 dereferenceable(64) %0) #3 comdat align 2 {
  %2 = alloca ptr, align 8
  store ptr %0, ptr %2, align 8, !tbaa !10
  %3 = load ptr, ptr %2, align 8
  %4 = getelementptr inbounds nuw %"class.icu_77::UnicodeString", ptr %3, i32 0, i32 1
  %5 = getelementptr inbounds nuw %struct.anon.0, ptr %4, i32 0, i32 0
  %6 = load i16, ptr %5, align 8, !tbaa !35
  %7 = sext i16 %6 to i32
  %8 = ashr i32 %7, 5
  ret i32 %8
}

; Function Attrs: inlinehint mustprogress nounwind uwtable
define linkonce_odr noundef signext i8 @_ZNK6icu_7713UnicodeString14hasShortLengthEv(ptr noundef nonnull align 8 dereferenceable(64) %0) #3 comdat align 2 {
  %2 = alloca ptr, align 8
  store ptr %0, ptr %2, align 8, !tbaa !10
  %3 = load ptr, ptr %2, align 8
  %4 = getelementptr inbounds nuw %"class.icu_77::UnicodeString", ptr %3, i32 0, i32 1
  %5 = getelementptr inbounds nuw %struct.anon.0, ptr %4, i32 0, i32 0
  %6 = load i16, ptr %5, align 8, !tbaa !35
  %7 = sext i16 %6 to i32
  %8 = icmp sge i32 %7, 0
  %9 = zext i1 %8 to i8
  ret i8 %9
}

; Function Attrs: inlinehint mustprogress uwtable
define linkonce_odr noundef signext i8 @_ZNK6icu_7713UnicodeString8doEqualsERKS0_i(ptr noundef nonnull align 8 dereferenceable(64) %0, ptr noundef nonnull align 8 dereferenceable(64) %1, i32 noundef %2) #1 comdat align 2 {
  %4 = alloca ptr, align 8
  %5 = alloca ptr, align 8
  %6 = alloca i32, align 4
  store ptr %0, ptr %4, align 8, !tbaa !10
  store ptr %1, ptr %5, align 8, !tbaa !10
  store i32 %2, ptr %6, align 4, !tbaa !12
  %7 = load ptr, ptr %4, align 8
  %8 = load ptr, ptr %5, align 8, !tbaa !10
  %9 = call noundef ptr @_ZNK6icu_7713UnicodeString13getArrayStartEv(ptr noundef nonnull align 8 dereferenceable(64) %8)
  %10 = load i32, ptr %6, align 4, !tbaa !12
  %11 = call noundef signext i8 @_ZNK6icu_7713UnicodeString8doEqualsEPKDsi(ptr noundef nonnull align 8 dereferenceable(64) %7, ptr noundef %9, i32 noundef %10)
  ret i8 %11
}

; Function Attrs: inlinehint mustprogress uwtable
define linkonce_odr noundef i32 @_ZNK6icu_7713UnicodeString6lengthEv(ptr noundef nonnull align 8 dereferenceable(64) %0) #1 comdat align 2 {
  %2 = alloca ptr, align 8
  store ptr %0, ptr %2, align 8, !tbaa !10
  %3 = load ptr, ptr %2, align 8
  %4 = call noundef signext i8 @_ZNK6icu_7713UnicodeString14hasShortLengthEv(ptr noundef nonnull align 8 dereferenceable(64) %3)
  %5 = icmp ne i8 %4, 0
  br i1 %5, label %6, label %8

6:                                                ; preds = %1
  %7 = call noundef i32 @_ZNK6icu_7713UnicodeString14getShortLengthEv(ptr noundef nonnull align 8 dereferenceable(64) %3)
  br label %12

8:                                                ; preds = %1
  %9 = getelementptr inbounds nuw %"class.icu_77::UnicodeString", ptr %3, i32 0, i32 1
  %10 = getelementptr inbounds nuw %struct.anon.0, ptr %9, i32 0, i32 1
  %11 = load i32, ptr %10, align 4, !tbaa !35
  br label %12

12:                                               ; preds = %8, %6
  %13 = phi i32 [ %7, %6 ], [ %11, %8 ]
  ret i32 %13
}

; Function Attrs: inlinehint mustprogress nounwind uwtable
define linkonce_odr noundef signext i8 @_ZNK6icu_7713UnicodeString7isBogusEv(ptr noundef nonnull align 8 dereferenceable(64) %0) #3 comdat align 2 {
  %2 = alloca ptr, align 8
  store ptr %0, ptr %2, align 8, !tbaa !10
  %3 = load ptr, ptr %2, align 8
  %4 = getelementptr inbounds nuw %"class.icu_77::UnicodeString", ptr %3, i32 0, i32 1
  %5 = getelementptr inbounds nuw %struct.anon.0, ptr %4, i32 0, i32 0
  %6 = load i16, ptr %5, align 8, !tbaa !35
  %7 = sext i16 %6 to i32
  %8 = and i32 %7, 1
  %9 = trunc i32 %8 to i8
  ret i8 %9
}

; Function Attrs: mustprogress uwtable
define linkonce_odr noundef zeroext i1 @_ZNK6icu_776NFRuleneERKS0_(ptr noundef nonnull align 8 dereferenceable(112) %0, ptr noundef nonnull align 8 dereferenceable(112) %1) #0 comdat align 2 {
  %3 = alloca ptr, align 8
  %4 = alloca ptr, align 8
  store ptr %0, ptr %3, align 8, !tbaa !26
  store ptr %1, ptr %4, align 8, !tbaa !26
  %5 = load ptr, ptr %3, align 8
  %6 = load ptr, ptr %4, align 8, !tbaa !26
  %7 = call noundef zeroext i1 @_ZNK6icu_776NFRuleeqERKS0_(ptr noundef nonnull align 8 dereferenceable(112) %5, ptr noundef nonnull align 8 dereferenceable(112) %6)
  %8 = xor i1 %7, true
  ret i1 %8
}

; Function Attrs: mustprogress nounwind uwtable
define linkonce_odr noundef ptr @_ZNK6icu_7710NFRuleListixEj(ptr noundef nonnull align 8 dereferenceable(16) %0, i32 noundef %1) #6 comdat align 2 {
  %3 = alloca ptr, align 8
  %4 = alloca i32, align 4
  store ptr %0, ptr %3, align 8, !tbaa !36
  store i32 %1, ptr %4, align 4, !tbaa !12
  %5 = load ptr, ptr %3, align 8
  %6 = getelementptr inbounds nuw %"class.icu_77::NFRuleList", ptr %5, i32 0, i32 0
  %7 = load ptr, ptr %6, align 8, !tbaa !38
  %8 = icmp ne ptr %7, null
  br i1 %8, label %9, label %16

9:                                                ; preds = %2
  %10 = getelementptr inbounds nuw %"class.icu_77::NFRuleList", ptr %5, i32 0, i32 0
  %11 = load ptr, ptr %10, align 8, !tbaa !38
  %12 = load i32, ptr %4, align 4, !tbaa !12
  %13 = zext i32 %12 to i64
  %14 = getelementptr inbounds nuw ptr, ptr %11, i64 %13
  %15 = load ptr, ptr %14, align 8, !tbaa !26
  br label %17

16:                                               ; preds = %2
  br label %17

17:                                               ; preds = %16, %9
  %18 = phi ptr [ %15, %9 ], [ null, %16 ]
  ret ptr %18
}

; Function Attrs: mustprogress uwtable
define internal noundef signext i8 @_ZN6icu_77L15util_equalRulesEPKNS_6NFRuleES2_(ptr noundef %0, ptr noundef %1) #0 {
  %3 = alloca i8, align 1
  %4 = alloca ptr, align 8
  %5 = alloca ptr, align 8
  store ptr %0, ptr %4, align 8, !tbaa !26
  store ptr %1, ptr %5, align 8, !tbaa !26
  %6 = load ptr, ptr %4, align 8, !tbaa !26
  %7 = icmp ne ptr %6, null
  br i1 %7, label %8, label %17

8:                                                ; preds = %2
  %9 = load ptr, ptr %5, align 8, !tbaa !26
  %10 = icmp ne ptr %9, null
  br i1 %10, label %11, label %16

11:                                               ; preds = %8
  %12 = load ptr, ptr %4, align 8, !tbaa !26
  %13 = load ptr, ptr %5, align 8, !tbaa !26
  %14 = call noundef zeroext i1 @_ZNK6icu_776NFRuleeqERKS0_(ptr noundef nonnull align 8 dereferenceable(112) %12, ptr noundef nonnull align 8 dereferenceable(112) %13)
  %15 = zext i1 %14 to i8
  store i8 %15, ptr %3, align 1
  br label %23

16:                                               ; preds = %8
  br label %22

17:                                               ; preds = %2
  %18 = load ptr, ptr %5, align 8, !tbaa !26
  %19 = icmp ne ptr %18, null
  br i1 %19, label %21, label %20

20:                                               ; preds = %17
  store i8 1, ptr %3, align 1
  br label %23

21:                                               ; preds = %17
  br label %22

22:                                               ; preds = %21, %16
  store i8 0, ptr %3, align 1
  br label %23

23:                                               ; preds = %22, %20, %11
  %24 = load i8, ptr %3, align 1
  ret i8 %24
}

; Function Attrs: inlinehint mustprogress uwtable
define linkonce_odr noundef zeroext i1 @_ZNK6icu_7713UnicodeStringeqERKS0_(ptr noundef nonnull align 8 dereferenceable(64) %0, ptr noundef nonnull align 8 dereferenceable(64) %1) #1 comdat align 2 {
  %3 = alloca i1, align 1
  %4 = alloca ptr, align 8
  %5 = alloca ptr, align 8
  %6 = alloca i32, align 4
  %7 = alloca i32, align 4
  store ptr %0, ptr %4, align 8, !tbaa !10
  store ptr %1, ptr %5, align 8, !tbaa !10
  %8 = load ptr, ptr %4, align 8
  %9 = call noundef signext i8 @_ZNK6icu_7713UnicodeString7isBogusEv(ptr noundef nonnull align 8 dereferenceable(64) %8)
  %10 = icmp ne i8 %9, 0
  br i1 %10, label %11, label %15

11:                                               ; preds = %2
  %12 = load ptr, ptr %5, align 8, !tbaa !10
  %13 = call noundef signext i8 @_ZNK6icu_7713UnicodeString7isBogusEv(ptr noundef nonnull align 8 dereferenceable(64) %12)
  %14 = icmp ne i8 %13, 0
  store i1 %14, ptr %3, align 1
  br label %33

15:                                               ; preds = %2
  call void @llvm.lifetime.start.p0(i64 4, ptr %6) #12
  %16 = call noundef i32 @_ZNK6icu_7713UnicodeString6lengthEv(ptr noundef nonnull align 8 dereferenceable(64) %8)
  store i32 %16, ptr %6, align 4, !tbaa !12
  call void @llvm.lifetime.start.p0(i64 4, ptr %7) #12
  %17 = load ptr, ptr %5, align 8, !tbaa !10
  %18 = call noundef i32 @_ZNK6icu_7713UnicodeString6lengthEv(ptr noundef nonnull align 8 dereferenceable(64) %17)
  store i32 %18, ptr %7, align 4, !tbaa !12
  %19 = load ptr, ptr %5, align 8, !tbaa !10
  %20 = call noundef signext i8 @_ZNK6icu_7713UnicodeString7isBogusEv(ptr noundef nonnull align 8 dereferenceable(64) %19)
  %21 = icmp ne i8 %20, 0
  br i1 %21, label %31, label %22

22:                                               ; preds = %15
  %23 = load i32, ptr %6, align 4, !tbaa !12
  %24 = load i32, ptr %7, align 4, !tbaa !12
  %25 = icmp eq i32 %23, %24
  br i1 %25, label %26, label %31

26:                                               ; preds = %22
  %27 = load ptr, ptr %5, align 8, !tbaa !10
  %28 = load i32, ptr %6, align 4, !tbaa !12
  %29 = call noundef signext i8 @_ZNK6icu_7713UnicodeString8doEqualsERKS0_i(ptr noundef nonnull align 8 dereferenceable(64) %8, ptr noundef nonnull align 8 dereferenceable(64) %27, i32 noundef %28)
  %30 = icmp ne i8 %29, 0
  br label %31

31:                                               ; preds = %26, %22, %15
  %32 = phi i1 [ false, %22 ], [ false, %15 ], [ %30, %26 ]
  store i1 %32, ptr %3, align 1
  call void @llvm.lifetime.end.p0(i64 4, ptr %7) #12
  call void @llvm.lifetime.end.p0(i64 4, ptr %6) #12
  br label %33

33:                                               ; preds = %31, %11
  %34 = load i1, ptr %3, align 1
  ret i1 %34
}

; Function Attrs: mustprogress nounwind uwtable
define linkonce_odr noundef i32 @_ZNK6icu_7710NFRuleList4sizeEv(ptr noundef nonnull align 8 dereferenceable(16) %0) #6 comdat align 2 {
  %2 = alloca ptr, align 8
  store ptr %0, ptr %2, align 8, !tbaa !36
  %3 = load ptr, ptr %2, align 8
  %4 = getelementptr inbounds nuw %"class.icu_77::NFRuleList", ptr %3, i32 0, i32 1
  %5 = load i32, ptr %4, align 8, !tbaa !39
  ret i32 %5
}

; Function Attrs: mustprogress uwtable
define noundef zeroext i1 @_ZNK6icu_779NFRuleSeteqERKS0_(ptr noundef nonnull align 8 dereferenceable(163) %0, ptr noundef nonnull align 8 dereferenceable(163) %1) #0 align 2 {
  %3 = alloca i1, align 1
  %4 = alloca ptr, align 8
  %5 = alloca ptr, align 8
  %6 = alloca i32, align 4
  %7 = alloca i32, align 4
  %8 = alloca i32, align 4
  store ptr %0, ptr %4, align 8, !tbaa !3
  store ptr %1, ptr %5, align 8, !tbaa !3
  %9 = load ptr, ptr %4, align 8
  %10 = getelementptr inbounds nuw %"class.icu_77::NFRuleSet", ptr %9, i32 0, i32 2
  %11 = call noundef i32 @_ZNK6icu_7710NFRuleList4sizeEv(ptr noundef nonnull align 8 dereferenceable(16) %10)
  %12 = load ptr, ptr %5, align 8, !tbaa !3
  %13 = getelementptr inbounds nuw %"class.icu_77::NFRuleSet", ptr %12, i32 0, i32 2
  %14 = call noundef i32 @_ZNK6icu_7710NFRuleList4sizeEv(ptr noundef nonnull align 8 dereferenceable(16) %13)
  %15 = icmp eq i32 %11, %14
  br i1 %15, label %16, label %80

16:                                               ; preds = %2
  %17 = getelementptr inbounds nuw %"class.icu_77::NFRuleSet", ptr %9, i32 0, i32 6
  %18 = load i8, ptr %17, align 8, !tbaa !23
  %19 = sext i8 %18 to i32
  %20 = load ptr, ptr %5, align 8, !tbaa !3
  %21 = getelementptr inbounds nuw %"class.icu_77::NFRuleSet", ptr %20, i32 0, i32 6
  %22 = load i8, ptr %21, align 8, !tbaa !23
  %23 = sext i8 %22 to i32
  %24 = icmp eq i32 %19, %23
  br i1 %24, label %25, label %80

25:                                               ; preds = %16
  %26 = getelementptr inbounds nuw %"class.icu_77::NFRuleSet", ptr %9, i32 0, i32 1
  %27 = load ptr, ptr %5, align 8, !tbaa !3
  %28 = getelementptr inbounds nuw %"class.icu_77::NFRuleSet", ptr %27, i32 0, i32 1
  %29 = call noundef zeroext i1 @_ZNK6icu_7713UnicodeStringeqERKS0_(ptr noundef nonnull align 8 dereferenceable(64) %26, ptr noundef nonnull align 8 dereferenceable(64) %28)
  br i1 %29, label %30, label %80

30:                                               ; preds = %25
  call void @llvm.lifetime.start.p0(i64 4, ptr %6) #12
  store i32 0, ptr %6, align 4, !tbaa !12
  br label %31

31:                                               ; preds = %51, %30
  %32 = load i32, ptr %6, align 4, !tbaa !12
  %33 = icmp slt i32 %32, 6
  br i1 %33, label %35, label %34

34:                                               ; preds = %31
  store i32 2, ptr %7, align 4
  br label %54

35:                                               ; preds = %31
  %36 = getelementptr inbounds nuw %"class.icu_77::NFRuleSet", ptr %9, i32 0, i32 3
  %37 = load i32, ptr %6, align 4, !tbaa !12
  %38 = sext i32 %37 to i64
  %39 = getelementptr inbounds [6 x ptr], ptr %36, i64 0, i64 %38
  %40 = load ptr, ptr %39, align 8, !tbaa !26
  %41 = load ptr, ptr %5, align 8, !tbaa !3
  %42 = getelementptr inbounds nuw %"class.icu_77::NFRuleSet", ptr %41, i32 0, i32 3
  %43 = load i32, ptr %6, align 4, !tbaa !12
  %44 = sext i32 %43 to i64
  %45 = getelementptr inbounds [6 x ptr], ptr %42, i64 0, i64 %44
  %46 = load ptr, ptr %45, align 8, !tbaa !26
  %47 = call noundef signext i8 @_ZN6icu_77L15util_equalRulesEPKNS_6NFRuleES2_(ptr noundef %40, ptr noundef %46)
  %48 = icmp ne i8 %47, 0
  br i1 %48, label %50, label %49

49:                                               ; preds = %35
  store i1 false, ptr %3, align 1
  store i32 1, ptr %7, align 4
  br label %54

50:                                               ; preds = %35
  br label %51

51:                                               ; preds = %50
  %52 = load i32, ptr %6, align 4, !tbaa !12
  %53 = add nsw i32 %52, 1
  store i32 %53, ptr %6, align 4, !tbaa !12
  br label %31, !llvm.loop !68

54:                                               ; preds = %49, %34
  call void @llvm.lifetime.end.p0(i64 4, ptr %6) #12
  %55 = load i32, ptr %7, align 4
  switch i32 %55, label %83 [
    i32 2, label %56
    i32 1, label %81
  ]

56:                                               ; preds = %54
  call void @llvm.lifetime.start.p0(i64 4, ptr %8) #12
  store i32 0, ptr %8, align 4, !tbaa !12
  br label %57

57:                                               ; preds = %74, %56
  %58 = load i32, ptr %8, align 4, !tbaa !12
  %59 = getelementptr inbounds nuw %"class.icu_77::NFRuleSet", ptr %9, i32 0, i32 2
  %60 = call noundef i32 @_ZNK6icu_7710NFRuleList4sizeEv(ptr noundef nonnull align 8 dereferenceable(16) %59)
  %61 = icmp ult i32 %58, %60
  br i1 %61, label %63, label %62

62:                                               ; preds = %57
  store i32 5, ptr %7, align 4
  br label %77

63:                                               ; preds = %57
  %64 = getelementptr inbounds nuw %"class.icu_77::NFRuleSet", ptr %9, i32 0, i32 2
  %65 = load i32, ptr %8, align 4, !tbaa !12
  %66 = call noundef ptr @_ZNK6icu_7710NFRuleListixEj(ptr noundef nonnull align 8 dereferenceable(16) %64, i32 noundef %65)
  %67 = load ptr, ptr %5, align 8, !tbaa !3
  %68 = getelementptr inbounds nuw %"class.icu_77::NFRuleSet", ptr %67, i32 0, i32 2
  %69 = load i32, ptr %8, align 4, !tbaa !12
  %70 = call noundef ptr @_ZNK6icu_7710NFRuleListixEj(ptr noundef nonnull align 8 dereferenceable(16) %68, i32 noundef %69)
  %71 = call noundef zeroext i1 @_ZNK6icu_776NFRuleneERKS0_(ptr noundef nonnull align 8 dereferenceable(112) %66, ptr noundef nonnull align 8 dereferenceable(112) %70)
  br i1 %71, label %72, label %73

72:                                               ; preds = %63
  store i1 false, ptr %3, align 1
  store i32 1, ptr %7, align 4
  br label %77

73:                                               ; preds = %63
  br label %74

74:                                               ; preds = %73
  %75 = load i32, ptr %8, align 4, !tbaa !12
  %76 = add i32 %75, 1
  store i32 %76, ptr %8, align 4, !tbaa !12
  br label %57, !llvm.loop !69

77:                                               ; preds = %72, %62
  call void @llvm.lifetime.end.p0(i64 4, ptr %8) #12
  %78 = load i32, ptr %7, align 4
  switch i32 %78, label %83 [
    i32 5, label %79
    i32 1, label %81
  ]

79:                                               ; preds = %77
  store i1 true, ptr %3, align 1
  br label %81

80:                                               ; preds = %25, %16, %2
  store i1 false, ptr %3, align 1
  br label %81

81:                                               ; preds = %80, %79, %77, %54
  %82 = load i1, ptr %3, align 1
  ret i1 %82

83:                                               ; preds = %77, %54
  unreachable
}