; Function Attrs: mustprogress uwtable
define noundef zeroext i1 @_ZNK6icu_779NFRuleSeteqERKS0_(ptr noundef nonnull align 8 dereferenceable(163) %0, ptr noundef nonnull align 8 dereferenceable(163) %1) local_unnamed_addr #0 align 2 {
  %3 = getelementptr inbounds nuw i8, ptr %0, i64 72
  %4 = getelementptr inbounds nuw i8, ptr %0, i64 80
  %5 = load i32, ptr %4, align 8, !tbaa !20
  %6 = getelementptr inbounds nuw i8, ptr %1, i64 72
  %7 = getelementptr inbounds nuw i8, ptr %1, i64 80
  %8 = load i32, ptr %7, align 8, !tbaa !20
  %9 = icmp eq i32 %5, %8
  br i1 %9, label %10, label %_ZNK6icu_7713UnicodeStringeqERKS0_.exit.thread

10:                                               ; preds = %2
  %11 = getelementptr inbounds nuw i8, ptr %0, i64 160
  %12 = load i8, ptr %11, align 8, !tbaa !22
  %13 = getelementptr inbounds nuw i8, ptr %1, i64 160
  %14 = load i8, ptr %13, align 8, !tbaa !22
  %15 = icmp eq i8 %12, %14
  br i1 %15, label %16, label %_ZNK6icu_7713UnicodeStringeqERKS0_.exit.thread

16:                                               ; preds = %10
  %17 = getelementptr inbounds nuw i8, ptr %0, i64 8
  %18 = getelementptr inbounds nuw i8, ptr %0, i64 16
  %19 = load i16, ptr %18, align 8, !tbaa !6
  %20 = and i16 %19, 1
  %.not.i = icmp eq i16 %20, 0
  br i1 %.not.i, label %25, label %21

21:                                               ; preds = %16
  %22 = getelementptr inbounds nuw i8, ptr %1, i64 16
  %23 = load i16, ptr %22, align 8, !tbaa !6
  %24 = and i16 %23, 1
  %.not36 = icmp eq i16 %24, 0
  br i1 %.not36, label %_ZNK6icu_7713UnicodeStringeqERKS0_.exit.thread, label %.preheader38

25:                                               ; preds = %16
  %26 = icmp slt i16 %19, 0
  %27 = ashr i16 %19, 5
  %28 = sext i16 %27 to i32
  %29 = getelementptr inbounds nuw i8, ptr %0, i64 20
  %30 = load i32, ptr %29, align 4
  %31 = select i1 %26, i32 %30, i32 %28
  %32 = getelementptr inbounds nuw i8, ptr %1, i64 16
  %33 = load i16, ptr %32, align 8, !tbaa !6
  %34 = icmp slt i16 %33, 0
  %35 = ashr i16 %33, 5
  %36 = sext i16 %35 to i32
  %37 = getelementptr inbounds nuw i8, ptr %1, i64 20
  %38 = load i32, ptr %37, align 4
  %39 = select i1 %34, i32 %38, i32 %36
  %40 = and i16 %33, 1
  %.not9.i = icmp eq i16 %40, 0
  %41 = icmp eq i32 %31, %39
  %or.cond.i = and i1 %.not9.i, %41
  br i1 %or.cond.i, label %_ZNK6icu_7713UnicodeStringeqERKS0_.exit, label %_ZNK6icu_7713UnicodeStringeqERKS0_.exit.thread

_ZNK6icu_7713UnicodeStringeqERKS0_.exit:          ; preds = %25
  %42 = and i16 %33, 2
  %.not.i.i.i = icmp eq i16 %42, 0
  %43 = getelementptr inbounds nuw i8, ptr %1, i64 18
  %44 = getelementptr inbounds nuw i8, ptr %1, i64 32
  %45 = load ptr, ptr %44, align 8
  %46 = select i1 %.not.i.i.i, ptr %45, ptr %43
  %47 = tail call noundef signext i8 @_ZNK6icu_7713UnicodeString8doEqualsEPKDsi(ptr noundef nonnull align 8 dereferenceable(64) %17, ptr noundef %46, i32 noundef %31)
  %.not37 = icmp eq i8 %47, 0
  br i1 %.not37, label %_ZNK6icu_7713UnicodeStringeqERKS0_.exit.thread, label %.preheader38

.preheader38:                                     ; preds = %_ZNK6icu_7713UnicodeStringeqERKS0_.exit, %21
  %48 = getelementptr inbounds nuw i8, ptr %0, i64 88
  %49 = getelementptr inbounds nuw i8, ptr %1, i64 88
  br label %52

.preheader:                                       ; preds = %_ZN6icu_77L15util_equalRulesEPKNS_6NFRuleES2_.exit.thread30
  %50 = load i32, ptr %4, align 8, !tbaa !20
  %51 = icmp eq i32 %50, 0
  br i1 %51, label %_ZNK6icu_7713UnicodeStringeqERKS0_.exit.thread, label %_ZNK6icu_7710NFRuleListixEj.exit

52:                                               ; preds = %.preheader38, %_ZN6icu_77L15util_equalRulesEPKNS_6NFRuleES2_.exit.thread30
  %indvars.iv = phi i64 [ 0, %.preheader38 ], [ %indvars.iv.next, %_ZN6icu_77L15util_equalRulesEPKNS_6NFRuleES2_.exit.thread30 ]
  %53 = getelementptr inbounds nuw [6 x ptr], ptr %48, i64 0, i64 %indvars.iv
  %54 = load ptr, ptr %53, align 8, !tbaa !25
  %55 = getelementptr inbounds nuw [6 x ptr], ptr %49, i64 0, i64 %indvars.iv
  %56 = load ptr, ptr %55, align 8, !tbaa !25
  %.not.i22 = icmp eq ptr %54, null
  %.not7.i = icmp eq ptr %56, null
  br i1 %.not.i22, label %58, label %57

57:                                               ; preds = %52
  br i1 %.not7.i, label %_ZNK6icu_7713UnicodeStringeqERKS0_.exit.thread, label %_ZN6icu_77L15util_equalRulesEPKNS_6NFRuleES2_.exit

58:                                               ; preds = %52
  br i1 %.not7.i, label %_ZN6icu_77L15util_equalRulesEPKNS_6NFRuleES2_.exit.thread30, label %_ZNK6icu_7713UnicodeStringeqERKS0_.exit.thread

_ZN6icu_77L15util_equalRulesEPKNS_6NFRuleES2_.exit: ; preds = %57
  %59 = tail call noundef zeroext i1 @_ZNK6icu_776NFRuleeqERKS0_(ptr noundef nonnull align 8 dereferenceable(112) %54, ptr noundef nonnull align 8 dereferenceable(112) %56)
  br i1 %59, label %_ZN6icu_77L15util_equalRulesEPKNS_6NFRuleES2_.exit.thread30, label %_ZNK6icu_7713UnicodeStringeqERKS0_.exit.thread

_ZN6icu_77L15util_equalRulesEPKNS_6NFRuleES2_.exit.thread30: ; preds = %58, %_ZN6icu_77L15util_equalRulesEPKNS_6NFRuleES2_.exit
  %indvars.iv.next = add nuw nsw i64 %indvars.iv, 1
  %exitcond.not = icmp eq i64 %indvars.iv.next, 6
  br i1 %exitcond.not, label %.preheader, label %52, !llvm.loop !50

60:                                               ; preds = %_ZNK6icu_7710NFRuleListixEj.exit
  %indvars.iv.next46 = add nuw nsw i64 %indvars.iv45, 1
  %61 = load i32, ptr %4, align 8, !tbaa !20
  %62 = zext i32 %61 to i64
  %.not = icmp samesign ult i64 %indvars.iv.next46, %62
  br i1 %.not, label %_ZNK6icu_7710NFRuleListixEj.exit, label %_ZNK6icu_7713UnicodeStringeqERKS0_.exit.thread, !llvm.loop !51

_ZNK6icu_7710NFRuleListixEj.exit:                 ; preds = %.preheader, %60
  %indvars.iv45 = phi i64 [ %indvars.iv.next46, %60 ], [ 0, %.preheader ]
  %63 = load ptr, ptr %3, align 8, !tbaa !19, !nonnull !40, !noundef !40
  %64 = getelementptr inbounds nuw ptr, ptr %63, i64 %indvars.iv45
  %65 = load ptr, ptr %64, align 8, !tbaa !25
  %66 = load ptr, ptr %6, align 8, !tbaa !19, !nonnull !40, !noundef !40
  %67 = getelementptr inbounds nuw ptr, ptr %66, i64 %indvars.iv45
  %68 = load ptr, ptr %67, align 8, !tbaa !25
  %69 = tail call noundef zeroext i1 @_ZNK6icu_776NFRuleeqERKS0_(ptr noundef nonnull align 8 dereferenceable(112) %65, ptr noundef nonnull align 8 dereferenceable(112) %68)
  br i1 %69, label %60, label %_ZNK6icu_7713UnicodeStringeqERKS0_.exit.thread

_ZNK6icu_7713UnicodeStringeqERKS0_.exit.thread:   ; preds = %58, %57, %_ZN6icu_77L15util_equalRulesEPKNS_6NFRuleES2_.exit, %_ZNK6icu_7710NFRuleListixEj.exit, %60, %.preheader, %25, %21, %2, %10, %_ZNK6icu_7713UnicodeStringeqERKS0_.exit
  %.119 = phi i1 [ false, %_ZNK6icu_7713UnicodeStringeqERKS0_.exit ], [ false, %10 ], [ false, %2 ], [ false, %21 ], [ false, %25 ], [ true, %.preheader ], [ %69, %60 ], [ %69, %_ZNK6icu_7710NFRuleListixEj.exit ], [ false, %_ZN6icu_77L15util_equalRulesEPKNS_6NFRuleES2_.exit ], [ false, %57 ], [ false, %58 ]
  ret i1 %.119
}